target datalayout = "e-m:e-p270:32:32-p271:32:32-p272:64:64-i64:64-i128:128-f80:128-n8:16:32:64-S128"
target triple = "x86_64-pc-linux-gnu"

%class.OopClosure = type { ptr }
%class.RegisterNMethodOopClosure = type { %class.OopClosure, ptr, ptr }

@g_assert_poison = external global ptr, align 8
@.str.29 = private unnamed_addr constant [44 x i8] c"src/hotspot/share/gc/g1/g1CollectedHeap.cpp\00", align 1
@.str.90 = private unnamed_addr constant [32 x i8] c"guarantee(nm != nullptr) failed\00", align 1
@.str.91 = private unnamed_addr constant [7 x i8] c"sanity\00", align 1
@_ZTV25RegisterNMethodOopClosure = linkonce_odr hidden unnamed_addr constant { [4 x ptr] } { [4 x ptr] [ptr null, ptr null, ptr @_ZN25RegisterNMethodOopClosure6do_oopEPP7oopDesc, ptr @_ZN25RegisterNMethodOopClosure6do_oopEP9narrowOop] }, comdat, align 8
@_ZTV10OopClosure = linkonce_odr hidden unnamed_addr constant { [4 x ptr] } { [4 x ptr] [ptr null, ptr null, ptr @__cxa_pure_virtual, ptr @__cxa_pure_virtual] }, comdat, align 8

; Function Attrs: mustprogress nounwind uwtable
define linkonce_odr hidden void @_ZN10OopClosureC2Ev(ptr noundef nonnull align 8 dereferenceable(8) %0) unnamed_addr #1 comdat align 2 {
  %2 = alloca ptr, align 8
  store ptr %0, ptr %2, align 8
  %3 = load ptr, ptr %2, align 8
  store ptr getelementptr inbounds inrange(-16, 16) ({ [4 x ptr] }, ptr @_ZTV10OopClosure, i32 0, i32 0, i32 2), ptr %3, align 8
  ret void
}

; Function Attrs: mustprogress nounwind uwtable
define linkonce_odr hidden void @_ZN7nmethod7oops_doEP10OopClosure(ptr noundef nonnull align 8 dereferenceable(214) %0, ptr noundef %1) #1 comdat align 2 {
  %3 = alloca ptr, align 8
  %4 = alloca ptr, align 8
  store ptr %0, ptr %3, align 8
  store ptr %1, ptr %4, align 8
  %5 = load ptr, ptr %3, align 8
  %6 = load ptr, ptr %4, align 8
  call void @_ZN7nmethod7oops_doEP10OopClosureb(ptr noundef nonnull align 8 dereferenceable(214) %5, ptr noundef %6, i1 noundef zeroext false)
  ret void
}

; Function Attrs: mustprogress nounwind uwtable
define linkonce_odr hidden void @_ZN25RegisterNMethodOopClosureC2EP15G1CollectedHeapP7nmethod(ptr noundef nonnull align 8 dereferenceable(24) %0, ptr noundef %1, ptr noundef %2) unnamed_addr #1 comdat align 2 {
  %4 = alloca ptr, align 8
  %5 = alloca ptr, align 8
  %6 = alloca ptr, align 8
  store ptr %0, ptr %4, align 8
  store ptr %1, ptr %5, align 8
  store ptr %2, ptr %6, align 8
  %7 = load ptr, ptr %4, align 8
  call void @_ZN10OopClosureC2Ev(ptr noundef nonnull align 8 dereferenceable(8) %7) #10
  store ptr getelementptr inbounds inrange(-16, 16) ({ [4 x ptr] }, ptr @_ZTV25RegisterNMethodOopClosure, i32 0, i32 0, i32 2), ptr %7, align 8
  %8 = getelementptr inbounds %class.RegisterNMethodOopClosure, ptr %7, i32 0, i32 1
  %9 = load ptr, ptr %5, align 8
  store ptr %9, ptr %8, align 8
  %10 = getelementptr inbounds %class.RegisterNMethodOopClosure, ptr %7, i32 0, i32 2
  %11 = load ptr, ptr %6, align 8
  store ptr %11, ptr %10, align 8
  ret void
}

; Function Attrs: mustprogress nounwind uwtable
define hidden void @_ZN15G1CollectedHeap16register_nmethodEP7nmethod(ptr noundef nonnull align 8 dereferenceable(1488) %0, ptr noundef %1) unnamed_addr #1 align 2 {
  %3 = alloca ptr, align 8
  %4 = alloca ptr, align 8
  %5 = alloca %class.RegisterNMethodOopClosure, align 8
  store ptr %0, ptr %3, align 8
  store ptr %1, ptr %4, align 8
  %6 = load ptr, ptr %3, align 8
  br label %7

7:                                                ; preds = %2
  %8 = load ptr, ptr %4, align 8
  %9 = icmp ne ptr %8, null
  br i1 %9, label %12, label %10

10:                                               ; preds = %7
  %11 = load ptr, ptr @g_assert_poison, align 8
  store i8 88, ptr %11, align 1
  call void (ptr, i32, ptr, ptr, ...) @_Z15report_vm_errorPKciS0_S0_z(ptr noundef @.str.29, i32 noundef 2991, ptr noundef @.str.90, ptr noundef @.str.91) #11
  unreachable

12:                                               ; preds = %7
  br label %13

13:                                               ; preds = %12
  %14 = load ptr, ptr %4, align 8
  call void @_ZN25RegisterNMethodOopClosureC2EP15G1CollectedHeapP7nmethod(ptr noundef nonnull align 8 dereferenceable(24) %5, ptr noundef %6, ptr noundef %14)
  %15 = load ptr, ptr %4, align 8
  call void @_ZN7nmethod7oops_doEP10OopClosure(ptr noundef nonnull align 8 dereferenceable(214) %15, ptr noundef %5)
  ret void
}