; Function Attrs: mustprogress nounwind uwtable
define hidden void @_ZN15G1CollectedHeap16register_nmethodEP7nmethod(ptr noundef nonnull align 8 dereferenceable(1488) %0, ptr noundef %1) unnamed_addr #0 align 2 {
  %3 = alloca %class.RegisterNMethodOopClosure, align 8
  %.not = icmp eq ptr %1, null
  br i1 %.not, label %4, label %6

4:                                                ; preds = %2
  %5 = load ptr, ptr @g_assert_poison, align 8
  store i8 88, ptr %5, align 1
  tail call void (ptr, i32, ptr, ptr, ...) @_Z15report_vm_errorPKciS0_S0_z(ptr noundef nonnull @.str.29, i32 noundef 2991, ptr noundef nonnull @.str.90, ptr noundef nonnull @.str.91) #24
  unreachable

6:                                                ; preds = %2
  store ptr getelementptr inbounds inrange(-16, 16) (i8, ptr @_ZTV25RegisterNMethodOopClosure, i64 16), ptr %3, align 8
  %7 = getelementptr inbounds i8, ptr %3, i64 8
  store ptr %0, ptr %7, align 8
  %8 = getelementptr inbounds i8, ptr %3, i64 16
  store ptr %1, ptr %8, align 8
  call void @_ZN7nmethod7oops_doEP10OopClosureb(ptr noundef nonnull align 8 dereferenceable(214) %1, ptr noundef nonnull %3, i1 noundef zeroext false) #23
  ret void
}